target datalayout = "e-m:e-p270:32:32-p271:32:32-p272:64:64-i64:64-i128:128-f80:128-n8:16:32:64-S128"
target triple = "x86_64-pc-linux-gnu"

%struct.RBasic = type { i64, i64 }
%struct.RData = type { %struct.RBasic, ptr, ptr, ptr }

@ruby_current_ec = external thread_local global ptr, align 8

; Function Attrs: inlinehint nounwind sspstrong willreturn memory(none) uwtable
define internal zeroext i1 @RB_NIL_P(i64 noundef %0) #12 {
  %2 = alloca i64, align 8
  store i64 %0, ptr %2, align 8, !tbaa !7
  %3 = load i64, ptr %2, align 8, !tbaa !7
  %4 = icmp eq i64 %3, 4
  ret i1 %4
}

; Function Attrs: nounwind sspstrong uwtable
define internal i64 @proc_to_block_handler(i64 noundef %0) #0 {
  %2 = alloca i64, align 8
  store i64 %0, ptr %2, align 8, !tbaa !7
  %3 = load i64, ptr %2, align 8, !tbaa !7
  %4 = call zeroext i1 @RB_NIL_P(i64 noundef %3) #29
  br i1 %4, label %5, label %6

5:                                                ; preds = %1
  br label %8

6:                                                ; preds = %1
  %7 = load i64, ptr %2, align 8, !tbaa !7
  br label %8

8:                                                ; preds = %6, %5
  %9 = phi i64 [ 0, %5 ], [ %7, %6 ]
  ret i64 %9
}

; Function Attrs: inlinehint nounwind sspstrong uwtable
define internal ptr @rb_current_execution_context(i1 noundef zeroext %0) #3 {
  %2 = alloca i8, align 1
  %3 = alloca ptr, align 8
  %4 = zext i1 %0 to i8
  store i8 %4, ptr %2, align 1, !tbaa !32
  call void @llvm.lifetime.start.p0(i64 8, ptr %3) #25
  %5 = call align 8 ptr @llvm.threadlocal.address.p0(ptr align 8 @ruby_current_ec)
  %6 = load ptr, ptr %5, align 8, !tbaa !19
  store ptr %6, ptr %3, align 8, !tbaa !19
  %7 = load ptr, ptr %3, align 8, !tbaa !19
  call void @llvm.lifetime.end.p0(i64 8, ptr %3) #25
  ret ptr %7
}

; Function Attrs: nounwind sspstrong uwtable
define dso_local i64 @rb_proc_call_with_block_kw(i64 noundef %0, i32 noundef %1, ptr noundef %2, i64 noundef %3, i32 noundef %4) #0 {
  %6 = alloca i64, align 8
  %7 = alloca i32, align 4
  %8 = alloca ptr, align 8
  %9 = alloca i64, align 8
  %10 = alloca i32, align 4
  %11 = alloca ptr, align 8
  %12 = alloca i64, align 8
  %13 = alloca ptr, align 8
  %14 = alloca ptr, align 8
  %15 = alloca ptr, align 8
  store i64 %0, ptr %6, align 8, !tbaa !7
  store i32 %1, ptr %7, align 4, !tbaa !36
  store ptr %2, ptr %8, align 8, !tbaa !35
  store i64 %3, ptr %9, align 8, !tbaa !7
  store i32 %4, ptr %10, align 4, !tbaa !36
  call void @llvm.lifetime.start.p0(i64 8, ptr %11) #25
  %16 = call ptr @rb_current_execution_context(i1 noundef zeroext true)
  store ptr %16, ptr %11, align 8, !tbaa !19
  call void @llvm.lifetime.start.p0(i64 8, ptr %12) #25
  call void @llvm.lifetime.start.p0(i64 8, ptr %13) #25
  %17 = load i64, ptr %6, align 8, !tbaa !7
  %18 = inttoptr i64 %17 to ptr
  %19 = getelementptr inbounds nuw %struct.RData, ptr %18, i32 0, i32 3
  %20 = load ptr, ptr %19, align 8, !tbaa !17
  store ptr %20, ptr %13, align 8, !tbaa !11
  %21 = load ptr, ptr %11, align 8, !tbaa !19
  %22 = load ptr, ptr %13, align 8, !tbaa !11
  %23 = load i32, ptr %7, align 4, !tbaa !36
  %24 = load ptr, ptr %8, align 8, !tbaa !35
  %25 = load i32, ptr %10, align 4, !tbaa !36
  %26 = load i64, ptr %9, align 8, !tbaa !7
  %27 = call i64 @proc_to_block_handler(i64 noundef %26)
  %28 = call i64 @rb_vm_invoke_proc(ptr noundef %21, ptr noundef %22, i32 noundef %23, ptr noundef %24, i32 noundef %25, i64 noundef %27)
  store i64 %28, ptr %12, align 8, !tbaa !7
  call void @llvm.lifetime.start.p0(i64 8, ptr %14) #25
  store ptr %6, ptr %14, align 8, !tbaa !35
  call void asm sideeffect "", "*m,~{dirflag},~{fpsr},~{flags}"(ptr elementtype(ptr) %14) #25, !srcloc !47
  %29 = load ptr, ptr %14, align 8, !tbaa !35
  store ptr %29, ptr %15, align 8, !tbaa !35
  call void @llvm.lifetime.end.p0(i64 8, ptr %14) #25
  %30 = load ptr, ptr %15, align 8, !tbaa !35
  %31 = load volatile i64, ptr %30, align 8, !tbaa !7
  %32 = load i64, ptr %12, align 8, !tbaa !7
  call void @llvm.lifetime.end.p0(i64 8, ptr %13) #25
  call void @llvm.lifetime.end.p0(i64 8, ptr %12) #25
  call void @llvm.lifetime.end.p0(i64 8, ptr %11) #25
  ret i64 %32
}