; Function Attrs: nounwind sspstrong uwtable
define dso_local i64 @rb_proc_call_with_block_kw(i64 noundef %0, i32 noundef %1, ptr noundef %2, i64 noundef %3, i32 noundef %4) local_unnamed_addr #0 {
  %6 = alloca i64, align 8
  %7 = alloca ptr, align 8
  store i64 %0, ptr %6, align 8, !tbaa !36
  %8 = tail call align 8 ptr @llvm.threadlocal.address.p0(ptr align 8 @ruby_current_ec)
  %9 = load ptr, ptr %8, align 8, !tbaa !20
  %10 = inttoptr i64 %0 to ptr
  %11 = getelementptr inbounds nuw i8, ptr %10, i64 32
  %12 = load ptr, ptr %11, align 8, !tbaa !7
  %13 = icmp eq i64 %3, 4
  %14 = select i1 %13, i64 0, i64 %3
  %15 = tail call i64 @rb_vm_invoke_proc(ptr noundef %9, ptr noundef %12, i32 noundef %1, ptr noundef %2, i32 noundef %4, i64 noundef %14) #21
  call void @llvm.lifetime.start.p0(i64 8, ptr nonnull %7) #21
  store ptr %6, ptr %7, align 8, !tbaa !44
  call void asm sideeffect "", "*m,~{dirflag},~{fpsr},~{flags}"(ptr nonnull elementtype(ptr) %7) #21, !srcloc !47
  %16 = load ptr, ptr %7, align 8, !tbaa !44
  call void @llvm.lifetime.end.p0(i64 8, ptr nonnull %7) #21
  %17 = load volatile i64, ptr %16, align 8, !tbaa !36
  ret i64 %15
}